; Function Attrs: nounwind uwtable
define ptr @l_Std_Range_forIn_x27_loop___at_Lean_Meta_ACLt_main_allChildrenLt___spec__2___boxed(ptr noundef %0, ptr noundef %1, ptr noundef %2, ptr noundef %3, ptr noundef %4, ptr noundef %5, ptr noundef %6, ptr noundef %7, ptr noundef readnone captures(none) %8, ptr noundef readnone captures(none) %9, ptr noundef %10, ptr noundef %11, ptr noundef %12, ptr noundef %13, ptr noundef %14) local_unnamed_addr #1 {
  %16 = ptrtoint ptr %0 to i64
  %17 = lshr i64 %16, 1
  %18 = trunc i64 %17 to i8
  %19 = and i64 %16, 1
  %.not = icmp eq i64 %19, 0
  br i1 %.not, label %20, label %lean_dec.exit22

20:                                               ; preds = %15
  %21 = load i32, ptr %0, align 4, !tbaa !4
  %22 = icmp sgt i32 %21, 1
  br i1 %22, label %23, label %25, !prof !9

23:                                               ; preds = %20
  %24 = add nsw i32 %21, -1
  store i32 %24, ptr %0, align 4, !tbaa !4
  br label %lean_dec.exit22

25:                                               ; preds = %20
  %.not.i = icmp eq i32 %21, 0
  br i1 %.not.i, label %lean_dec.exit22, label %26

26:                                               ; preds = %25
  tail call void @lean_dec_ref_cold(ptr noundef nonnull %0) #8
  br label %lean_dec.exit22

lean_dec.exit22:                                  ; preds = %26, %25, %23, %15
  %27 = tail call ptr @l_Std_Range_forIn_x27_loop___at_Lean_Meta_ACLt_main_allChildrenLt___spec__2(i8 noundef zeroext %18, ptr noundef %1, ptr noundef %2, ptr poison, ptr noundef %4, ptr noundef %5, ptr noundef %6, ptr noundef %7, ptr poison, ptr poison, ptr noundef %10, ptr noundef %11, ptr noundef %12, ptr noundef %13, ptr noundef %14)
  %28 = ptrtoint ptr %5 to i64
  %29 = and i64 %28, 1
  %.not29 = icmp eq i64 %29, 0
  br i1 %.not29, label %30, label %lean_dec.exit21

30:                                               ; preds = %lean_dec.exit22
  %31 = load i32, ptr %5, align 4, !tbaa !4
  %32 = icmp sgt i32 %31, 1
  br i1 %32, label %33, label %35, !prof !9

33:                                               ; preds = %30
  %34 = add nsw i32 %31, -1
  store i32 %34, ptr %5, align 4, !tbaa !4
  br label %lean_dec.exit21

35:                                               ; preds = %30
  %.not.i23 = icmp eq i32 %31, 0
  br i1 %.not.i23, label %lean_dec.exit21, label %36

36:                                               ; preds = %35
  tail call void @lean_dec_ref_cold(ptr noundef nonnull %5) #8
  br label %lean_dec.exit21

lean_dec.exit21:                                  ; preds = %36, %35, %33, %lean_dec.exit22
  %37 = ptrtoint ptr %3 to i64
  %38 = and i64 %37, 1
  %.not30 = icmp eq i64 %38, 0
  br i1 %.not30, label %39, label %lean_dec.exit20

39:                                               ; preds = %lean_dec.exit21
  %40 = load i32, ptr %3, align 4, !tbaa !4
  %41 = icmp sgt i32 %40, 1
  br i1 %41, label %42, label %44, !prof !9

42:                                               ; preds = %39
  %43 = add nsw i32 %40, -1
  store i32 %43, ptr %3, align 4, !tbaa !4
  br label %lean_dec.exit20

44:                                               ; preds = %39
  %.not.i25 = icmp eq i32 %40, 0
  br i1 %.not.i25, label %lean_dec.exit20, label %45

45:                                               ; preds = %44
  tail call void @lean_dec_ref_cold(ptr noundef nonnull %3) #8
  br label %lean_dec.exit20

lean_dec.exit20:                                  ; preds = %45, %44, %42, %lean_dec.exit21
  %46 = ptrtoint ptr %2 to i64
  %47 = and i64 %46, 1
  %.not31 = icmp eq i64 %47, 0
  br i1 %.not31, label %48, label %lean_dec.exit

48:                                               ; preds = %lean_dec.exit20
  %49 = load i32, ptr %2, align 4, !tbaa !4
  %50 = icmp sgt i32 %49, 1
  br i1 %50, label %51, label %53, !prof !9

51:                                               ; preds = %48
  %52 = add nsw i32 %49, -1
  store i32 %52, ptr %2, align 4, !tbaa !4
  br label %lean_dec.exit

53:                                               ; preds = %48
  %.not.i27 = icmp eq i32 %49, 0
  br i1 %.not.i27, label %lean_dec.exit, label %54

54:                                               ; preds = %53
  tail call void @lean_dec_ref_cold(ptr noundef nonnull %2) #8
  br label %lean_dec.exit

lean_dec.exit:                                    ; preds = %54, %53, %51, %lean_dec.exit20
  ret ptr %27
}